; Function Attrs: mustprogress nofree norecurse nosync nounwind willreturn memory(read, inaccessiblemem: none) uwtable
define internal noundef zeroext i1 @"_ZNSt17_Function_handlerIFbRKN4llvm13LegalityQueryEEZNS0_20AArch64LegalizerInfoC1ERKNS0_16AArch64SubtargetEE4$_63E9_M_invokeERKSt9_Any_dataS3_"(ptr nocapture nonnull readnone align 8 %0, ptr nocapture noundef nonnull readonly align 8 dereferenceable(40) %1) #11 align 2 {
  %3 = getelementptr inbounds i8, ptr %1, i64 8
  %.val = load ptr, ptr %3, align 8
  %4 = load i64, ptr %.val, align 8
  %5 = and i64 %4, 1
  %.not.i.i.i = icmp eq i64 %5, 0
  br i1 %.not.i.i.i, label %"_ZSt10__invoke_rIbRZN4llvm20AArch64LegalizerInfoC1ERKNS0_16AArch64SubtargetEE4$_63JRKNS0_13LegalityQueryEEENSt9enable_ifIX16is_invocable_r_vIT_T0_DpT1_EESB_E4typeEOSC_DpOSD_.exit", label %6

6:                                                ; preds = %2
  %7 = getelementptr inbounds i8, ptr %.val, i64 8
  %8 = load i64, ptr %7, align 8
  %9 = and i64 %8, 1
  %.not.i.i.i.i = icmp eq i64 %9, 0
  br i1 %.not.i.i.i.i, label %12, label %10

10:                                               ; preds = %6
  %11 = lshr i64 %8, 3
  br label %_ZNK4llvm3LLT19getScalarSizeInBitsEv.exit.i.i.i

12:                                               ; preds = %6
  %13 = and i64 %8, 4
  %.not1.i.i.i.i = icmp eq i64 %13, 0
  br i1 %.not1.i.i.i.i, label %18, label %14

14:                                               ; preds = %12
  %15 = and i64 %8, 2
  %.not2.i.i.i.i = icmp eq i64 %15, 0
  %16 = lshr i64 %8, 19
  %17 = and i64 %16, 65535
  %spec.select.i.i.i.i = select i1 %.not2.i.i.i.i, i64 %16, i64 %17
  br label %_ZNK4llvm3LLT19getScalarSizeInBitsEv.exit.i.i.i

18:                                               ; preds = %12
  %19 = lshr i64 %8, 3
  %20 = and i64 %19, 65535
  br label %_ZNK4llvm3LLT19getScalarSizeInBitsEv.exit.i.i.i

_ZNK4llvm3LLT19getScalarSizeInBitsEv.exit.i.i.i:  ; preds = %18, %14, %10
  %.0.in.i.i.i.i = phi i64 [ %11, %10 ], [ %20, %18 ], [ %spec.select.i.i.i.i, %14 ]
  %21 = and i64 %.0.in.i.i.i.i, 4294967232
  %22 = icmp eq i64 %21, 0
  br label %"_ZSt10__invoke_rIbRZN4llvm20AArch64LegalizerInfoC1ERKNS0_16AArch64SubtargetEE4$_63JRKNS0_13LegalityQueryEEENSt9enable_ifIX16is_invocable_r_vIT_T0_DpT1_EESB_E4typeEOSC_DpOSD_.exit"

"_ZSt10__invoke_rIbRZN4llvm20AArch64LegalizerInfoC1ERKNS0_16AArch64SubtargetEE4$_63JRKNS0_13LegalityQueryEEENSt9enable_ifIX16is_invocable_r_vIT_T0_DpT1_EESB_E4typeEOSC_DpOSD_.exit": ; preds = %2, %_ZNK4llvm3LLT19getScalarSizeInBitsEv.exit.i.i.i
  %23 = phi i1 [ false, %2 ], [ %22, %_ZNK4llvm3LLT19getScalarSizeInBitsEv.exit.i.i.i ]
  ret i1 %23
}